target datalayout = "e-m:e-p270:32:32-p271:32:32-p272:64:64-i64:64-i128:128-f80:128-n8:16:32:64-S128"
target triple = "x86_64-pc-linux-gnu"

%struct.rd_struct_s = type { i32, i16, i8, i8, ptr }
%struct.inode = type { ptr, ptr, ptr, i16, i16, %union.inode_ops_u, i16, ptr, [1 x i8] }
%union.inode_ops_u = type { ptr }

; Function Attrs: nounwind uwtable
define internal void @rd_destroy(ptr noundef %0) #0 {
  %2 = alloca ptr, align 8
  store ptr %0, ptr %2, align 8
  br label %3

3:                                                ; preds = %1
  br label %4

4:                                                ; preds = %3
  %5 = load ptr, ptr %2, align 8
  %6 = getelementptr inbounds %struct.rd_struct_s, ptr %5, i32 0, i32 3
  %7 = load i8, ptr %6, align 1
  %8 = zext i8 %7 to i32
  %9 = and i32 %8, 4
  %10 = icmp ne i32 %9, 0
  br i1 %10, label %11, label %23

11:                                               ; preds = %4
  %12 = load ptr, ptr %2, align 8
  %13 = getelementptr inbounds %struct.rd_struct_s, ptr %12, i32 0, i32 3
  %14 = load i8, ptr %13, align 1
  %15 = zext i8 %14 to i32
  %16 = and i32 %15, 3
  %17 = icmp ne i32 %16, 0
  br i1 %17, label %18, label %22

18:                                               ; preds = %11
  %19 = load ptr, ptr %2, align 8
  %20 = getelementptr inbounds %struct.rd_struct_s, ptr %19, i32 0, i32 4
  %21 = load ptr, ptr %20, align 8
  call void @free(ptr noundef %21)
  br label %22

22:                                               ; preds = %18, %11
  br label %23

23:                                               ; preds = %22, %4
  %24 = load ptr, ptr %2, align 8
  call void @free(ptr noundef %24)
  ret void
}

; Function Attrs: nounwind uwtable
define internal i32 @rd_close(ptr noundef %0) #0 {
  %2 = alloca ptr, align 8
  %3 = alloca ptr, align 8
  store ptr %0, ptr %2, align 8
  %4 = load ptr, ptr %2, align 8
  %5 = getelementptr inbounds %struct.inode, ptr %4, i32 0, i32 7
  %6 = load ptr, ptr %5, align 8
  store ptr %6, ptr %3, align 8
  %7 = load ptr, ptr %3, align 8
  %8 = getelementptr inbounds %struct.rd_struct_s, ptr %7, i32 0, i32 2
  %9 = load i8, ptr %8, align 2
  %10 = add i8 %9, -1
  store i8 %10, ptr %8, align 2
  br label %11

11:                                               ; preds = %1
  br label %12

12:                                               ; preds = %11
  %13 = load ptr, ptr %3, align 8
  %14 = getelementptr inbounds %struct.rd_struct_s, ptr %13, i32 0, i32 2
  %15 = load i8, ptr %14, align 2
  %16 = zext i8 %15 to i32
  %17 = icmp eq i32 %16, 0
  br i1 %17, label %18, label %28

18:                                               ; preds = %12
  %19 = load ptr, ptr %3, align 8
  %20 = getelementptr inbounds %struct.rd_struct_s, ptr %19, i32 0, i32 3
  %21 = load i8, ptr %20, align 1
  %22 = zext i8 %21 to i32
  %23 = and i32 %22, 4
  %24 = icmp ne i32 %23, 0
  br i1 %24, label %25, label %27

25:                                               ; preds = %18
  %26 = load ptr, ptr %3, align 8
  call void @rd_destroy(ptr noundef %26)
  br label %27

27:                                               ; preds = %25, %18
  br label %28

28:                                               ; preds = %27, %12
  ret i32 0
}