; Function Attrs: mustprogress nounwind willreturn uwtable
define internal noundef i32 @rd_close(ptr noundef readonly captures(none) %0) #6 {
  %2 = getelementptr inbounds nuw i8, ptr %0, i64 48
  %3 = load ptr, ptr %2, align 8
  %4 = getelementptr inbounds nuw i8, ptr %3, i64 6
  %5 = load i8, ptr %4, align 2
  %6 = add i8 %5, -1
  store i8 %6, ptr %4, align 2
  %7 = icmp eq i8 %6, 0
  br i1 %7, label %8, label %17

8:                                                ; preds = %1
  %9 = getelementptr inbounds nuw i8, ptr %3, i64 7
  %10 = load i8, ptr %9, align 1
  %11 = and i8 %10, 4
  %.not = icmp eq i8 %11, 0
  br i1 %.not, label %17, label %12

12:                                               ; preds = %8
  %13 = and i8 %10, 3
  %.not4.i = icmp eq i8 %13, 0
  br i1 %.not4.i, label %rd_destroy.exit, label %14

14:                                               ; preds = %12
  %15 = getelementptr inbounds nuw i8, ptr %3, i64 8
  %16 = load ptr, ptr %15, align 8
  tail call void @free(ptr noundef %16)
  br label %rd_destroy.exit

rd_destroy.exit:                                  ; preds = %12, %14
  tail call void @free(ptr noundef nonnull %3)
  br label %17

17:                                               ; preds = %8, %rd_destroy.exit, %1
  ret i32 0
}